target datalayout = "e-m:e-p270:32:32-p271:32:32-p272:64:64-i64:64-i128:128-f80:128-n8:16:32:64-S128"
target triple = "x86_64-pc-linux-gnu"

%struct.lxb_html_tokenizer = type { ptr, ptr, ptr, ptr, ptr, ptr, ptr, ptr, ptr, ptr, ptr, ptr, ptr, ptr, ptr, i64, ptr, ptr, ptr, ptr, ptr, i64, i64, ptr, ptr, i64, i64, i32, i32, i8, i32, i32, i8, ptr, i64 }

; Function Attrs: nounwind uwtable
define internal ptr @lxb_html_tokenizer_state_comment_less_than_sign_bang(ptr noundef %0, ptr noundef %1, ptr noundef %2) #0 {
  %4 = alloca ptr, align 8
  %5 = alloca ptr, align 8
  %6 = alloca ptr, align 8
  %7 = alloca ptr, align 8
  store ptr %0, ptr %5, align 8
  store ptr %1, ptr %6, align 8
  store ptr %2, ptr %7, align 8
  %8 = load ptr, ptr %6, align 8
  %9 = load i8, ptr %8, align 1
  %10 = zext i8 %9 to i32
  %11 = icmp eq i32 %10, 45
  br i1 %11, label %12, label %17

12:                                               ; preds = %3
  %13 = load ptr, ptr %5, align 8
  %14 = getelementptr inbounds %struct.lxb_html_tokenizer, ptr %13, i32 0, i32 0
  store ptr @lxb_html_tokenizer_state_comment_less_than_sign_bang_dash, ptr %14, align 8
  %15 = load ptr, ptr %6, align 8
  %16 = getelementptr inbounds i8, ptr %15, i64 1
  store ptr %16, ptr %4, align 8
  br label %21

17:                                               ; preds = %3
  %18 = load ptr, ptr %5, align 8
  %19 = getelementptr inbounds %struct.lxb_html_tokenizer, ptr %18, i32 0, i32 0
  store ptr @lxb_html_tokenizer_state_comment, ptr %19, align 8
  %20 = load ptr, ptr %6, align 8
  store ptr %20, ptr %4, align 8
  br label %21

21:                                               ; preds = %17, %12
  %22 = load ptr, ptr %4, align 8
  ret ptr %22
}